target datalayout = "e-m:e-p270:32:32-p271:32:32-p272:64:64-i64:64-i128:128-f80:128-n8:16:32:64-S128"
target triple = "x86_64-pc-linux-gnu"

%struct.lua_TValue = type { %union.Value, [1 x i32], i32 }
%union.Value = type { ptr }
%struct.lua_State = type { i8, i8, i8, i8, i8, i8, i8, ptr, ptr, ptr, ptr, ptr, ptr, ptr, ptr, i32, i32, i16, i16, i32, ptr, ptr, ptr, ptr, ptr }
%struct.global_State = type { %struct.stringtable, ptr, ptr, i8, i8, ptr, ptr, ptr, i64, i64, i32, i32, i32, [40 x ptr], [40 x ptr], ptr, ptr, ptr, [256 x i64], ptr, %struct.UpVal, [11 x ptr], [11 x ptr], [21 x ptr], %struct.lua_TValue, %struct.lua_TValue, i32, ptr, i64, [4 x i64], %struct.lua_Callbacks, %struct.lua_ExecutionCallbacks, [128 x ptr], [128 x ptr], [128 x ptr], %struct.GCStats }
%struct.stringtable = type { ptr, i32, i32 }
%struct.UpVal = type { i8, i8, i8, i8, ptr, %union.anon }
%union.anon = type { %struct.anon }
%struct.anon = type { ptr, ptr, ptr }
%struct.lua_Callbacks = type { ptr, ptr, ptr, ptr, ptr, ptr, ptr, ptr, ptr, ptr }
%struct.lua_ExecutionCallbacks = type { ptr, ptr, ptr, ptr, ptr, ptr, ptr }
%struct.GCStats = type { [32 x i32], i32, i32, i64, i64, i64, double, double, double }

; Function Attrs: mustprogress uwtable
define internal noundef i32 @_ZL10luauF_charP9lua_StateP10lua_TValueS2_iS2_i(ptr noundef %0, ptr noundef %1, ptr noundef %2, i32 noundef %3, ptr noundef %4, i32 noundef %5) #3 {
  %7 = alloca i32, align 4
  %8 = alloca ptr, align 8
  %9 = alloca ptr, align 8
  %10 = alloca ptr, align 8
  %11 = alloca i32, align 4
  %12 = alloca ptr, align 8
  %13 = alloca i32, align 4
  %14 = alloca [8 x i8], align 1
  %15 = alloca i32, align 4
  %16 = alloca i32, align 4
  %17 = alloca i32, align 4
  %18 = alloca i32, align 4
  %19 = alloca ptr, align 8
  store ptr %0, ptr %8, align 8, !tbaa !4
  store ptr %1, ptr %9, align 8, !tbaa !9
  store ptr %2, ptr %10, align 8, !tbaa !9
  store i32 %3, ptr %11, align 4, !tbaa !11
  store ptr %4, ptr %12, align 8, !tbaa !9
  store i32 %5, ptr %13, align 4, !tbaa !11
  call void @llvm.lifetime.start.p0(i64 8, ptr %14) #17
  %20 = load i32, ptr %13, align 4, !tbaa !11
  %21 = icmp slt i32 %20, 8
  br i1 %21, label %22, label %125

22:                                               ; preds = %6
  %23 = load i32, ptr %11, align 4, !tbaa !11
  %24 = icmp sle i32 %23, 1
  br i1 %24, label %25, label %125

25:                                               ; preds = %22
  %26 = load ptr, ptr %8, align 8, !tbaa !4
  %27 = getelementptr inbounds nuw %struct.lua_State, ptr %26, i32 0, i32 9
  %28 = load ptr, ptr %27, align 8, !tbaa !27
  %29 = getelementptr inbounds nuw %struct.global_State, ptr %28, i32 0, i32 9
  %30 = load i64, ptr %29, align 8, !tbaa !43
  %31 = load ptr, ptr %8, align 8, !tbaa !4
  %32 = getelementptr inbounds nuw %struct.lua_State, ptr %31, i32 0, i32 9
  %33 = load ptr, ptr %32, align 8, !tbaa !27
  %34 = getelementptr inbounds nuw %struct.global_State, ptr %33, i32 0, i32 8
  %35 = load i64, ptr %34, align 8, !tbaa !55
  %36 = icmp uge i64 %30, %35
  br i1 %36, label %37, label %38

37:                                               ; preds = %25
  store i32 -1, ptr %7, align 4
  store i32 1, ptr %15, align 4
  br label %126

38:                                               ; preds = %25
  %39 = load i32, ptr %13, align 4, !tbaa !11
  %40 = icmp sge i32 %39, 1
  br i1 %40, label %41, label %65

41:                                               ; preds = %38
  %42 = load ptr, ptr %10, align 8, !tbaa !9
  %43 = getelementptr inbounds nuw %struct.lua_TValue, ptr %42, i32 0, i32 2
  %44 = load i32, ptr %43, align 4, !tbaa !13
  %45 = icmp eq i32 %44, 3
  br i1 %45, label %47, label %46

46:                                               ; preds = %41
  store i32 -1, ptr %7, align 4
  store i32 1, ptr %15, align 4
  br label %126

47:                                               ; preds = %41
  call void @llvm.lifetime.start.p0(i64 4, ptr %16) #17
  %48 = load ptr, ptr %10, align 8, !tbaa !9
  %49 = getelementptr inbounds nuw %struct.lua_TValue, ptr %48, i32 0, i32 0
  %50 = load double, ptr %49, align 8, !tbaa !15
  %51 = fptosi double %50 to i32
  store i32 %51, ptr %16, align 4, !tbaa !11
  %52 = load i32, ptr %16, align 4, !tbaa !11
  %53 = trunc i32 %52 to i8
  %54 = zext i8 %53 to i32
  %55 = load i32, ptr %16, align 4, !tbaa !11
  %56 = icmp ne i32 %54, %55
  br i1 %56, label %57, label %58

57:                                               ; preds = %47
  store i32 -1, ptr %7, align 4
  store i32 1, ptr %15, align 4
  br label %62

58:                                               ; preds = %47
  %59 = load i32, ptr %16, align 4, !tbaa !11
  %60 = trunc i32 %59 to i8
  %61 = getelementptr inbounds [8 x i8], ptr %14, i64 0, i64 0
  store i8 %60, ptr %61, align 1, !tbaa !15
  store i32 0, ptr %15, align 4
  br label %62

62:                                               ; preds = %58, %57
  call void @llvm.lifetime.end.p0(i64 4, ptr %16) #17
  %63 = load i32, ptr %15, align 4
  switch i32 %63, label %126 [
    i32 0, label %64
  ]

64:                                               ; preds = %62
  br label %65

65:                                               ; preds = %64, %38
  call void @llvm.lifetime.start.p0(i64 4, ptr %17) #17
  store i32 2, ptr %17, align 4, !tbaa !11
  br label %66

66:                                               ; preds = %106, %65
  %67 = load i32, ptr %17, align 4, !tbaa !11
  %68 = load i32, ptr %13, align 4, !tbaa !11
  %69 = icmp sle i32 %67, %68
  br i1 %69, label %71, label %70

70:                                               ; preds = %66
  store i32 2, ptr %15, align 4
  br label %109

71:                                               ; preds = %66
  %72 = load ptr, ptr %12, align 8, !tbaa !9
  %73 = load i32, ptr %17, align 4, !tbaa !11
  %74 = sub nsw i32 %73, 2
  %75 = sext i32 %74 to i64
  %76 = getelementptr inbounds %struct.lua_TValue, ptr %72, i64 %75
  %77 = getelementptr inbounds nuw %struct.lua_TValue, ptr %76, i32 0, i32 2
  %78 = load i32, ptr %77, align 4, !tbaa !13
  %79 = icmp eq i32 %78, 3
  br i1 %79, label %81, label %80

80:                                               ; preds = %71
  store i32 -1, ptr %7, align 4
  store i32 1, ptr %15, align 4
  br label %109

81:                                               ; preds = %71
  call void @llvm.lifetime.start.p0(i64 4, ptr %18) #17
  %82 = load ptr, ptr %12, align 8, !tbaa !9
  %83 = load i32, ptr %17, align 4, !tbaa !11
  %84 = sub nsw i32 %83, 2
  %85 = sext i32 %84 to i64
  %86 = getelementptr inbounds %struct.lua_TValue, ptr %82, i64 %85
  %87 = getelementptr inbounds nuw %struct.lua_TValue, ptr %86, i32 0, i32 0
  %88 = load double, ptr %87, align 8, !tbaa !15
  %89 = fptosi double %88 to i32
  store i32 %89, ptr %18, align 4, !tbaa !11
  %90 = load i32, ptr %18, align 4, !tbaa !11
  %91 = trunc i32 %90 to i8
  %92 = zext i8 %91 to i32
  %93 = load i32, ptr %18, align 4, !tbaa !11
  %94 = icmp ne i32 %92, %93
  br i1 %94, label %95, label %96

95:                                               ; preds = %81
  store i32 -1, ptr %7, align 4
  store i32 1, ptr %15, align 4
  br label %103

96:                                               ; preds = %81
  %97 = load i32, ptr %18, align 4, !tbaa !11
  %98 = trunc i32 %97 to i8
  %99 = load i32, ptr %17, align 4, !tbaa !11
  %100 = sub nsw i32 %99, 1
  %101 = sext i32 %100 to i64
  %102 = getelementptr inbounds [8 x i8], ptr %14, i64 0, i64 %101
  store i8 %98, ptr %102, align 1, !tbaa !15
  store i32 0, ptr %15, align 4
  br label %103

103:                                              ; preds = %96, %95
  call void @llvm.lifetime.end.p0(i64 4, ptr %18) #17
  %104 = load i32, ptr %15, align 4
  switch i32 %104, label %109 [
    i32 0, label %105
  ]

105:                                              ; preds = %103
  br label %106

106:                                              ; preds = %105
  %107 = load i32, ptr %17, align 4, !tbaa !11
  %108 = add nsw i32 %107, 1
  store i32 %108, ptr %17, align 4, !tbaa !11
  br label %66, !llvm.loop !56

109:                                              ; preds = %103, %80, %70
  call void @llvm.lifetime.end.p0(i64 4, ptr %17) #17
  %110 = load i32, ptr %15, align 4
  switch i32 %110, label %126 [
    i32 2, label %111
  ]

111:                                              ; preds = %109
  %112 = load i32, ptr %13, align 4, !tbaa !11
  %113 = sext i32 %112 to i64
  %114 = getelementptr inbounds [8 x i8], ptr %14, i64 0, i64 %113
  store i8 0, ptr %114, align 1, !tbaa !15
  call void @llvm.lifetime.start.p0(i64 8, ptr %19) #17
  %115 = load ptr, ptr %9, align 8, !tbaa !9
  store ptr %115, ptr %19, align 8, !tbaa !9
  %116 = load ptr, ptr %8, align 8, !tbaa !4
  %117 = getelementptr inbounds [8 x i8], ptr %14, i64 0, i64 0
  %118 = load i32, ptr %13, align 4, !tbaa !11
  %119 = sext i32 %118 to i64
  %120 = call noundef ptr @_Z12luaS_newlstrP9lua_StatePKcm(ptr noundef %116, ptr noundef %117, i64 noundef %119)
  %121 = load ptr, ptr %19, align 8, !tbaa !9
  %122 = getelementptr inbounds nuw %struct.lua_TValue, ptr %121, i32 0, i32 0
  store ptr %120, ptr %122, align 8, !tbaa !15
  %123 = load ptr, ptr %19, align 8, !tbaa !9
  %124 = getelementptr inbounds nuw %struct.lua_TValue, ptr %123, i32 0, i32 2
  store i32 5, ptr %124, align 4, !tbaa !13
  call void @llvm.lifetime.end.p0(i64 8, ptr %19) #17
  store i32 1, ptr %7, align 4
  store i32 1, ptr %15, align 4
  br label %126

125:                                              ; preds = %22, %6
  store i32 -1, ptr %7, align 4
  store i32 1, ptr %15, align 4
  br label %126

126:                                              ; preds = %125, %111, %109, %62, %46, %37
  call void @llvm.lifetime.end.p0(i64 8, ptr %14) #17
  %127 = load i32, ptr %7, align 4
  ret i32 %127
}