; Function Attrs: mustprogress uwtable
define internal noundef range(i32 -1, 2) i32 @_ZL10luauF_charP9lua_StateP10lua_TValueS2_iS2_i(ptr noundef %0, ptr noundef writeonly captures(none) %1, ptr noundef readonly captures(none) %2, i32 noundef %3, ptr noundef readonly captures(none) %4, i32 noundef %5) #8 {
  %7 = alloca [8 x i8], align 1
  call void @llvm.lifetime.start.p0(i64 8, ptr nonnull %7) #21
  %8 = icmp slt i32 %5, 8
  %9 = icmp slt i32 %3, 2
  %or.cond = and i1 %9, %8
  br i1 %or.cond, label %10, label %.critedge

10:                                               ; preds = %6
  %11 = getelementptr inbounds nuw i8, ptr %0, i64 24
  %12 = load ptr, ptr %11, align 8, !tbaa !20
  %13 = getelementptr inbounds nuw i8, ptr %12, i64 72
  %14 = load i64, ptr %13, align 8, !tbaa !36
  %15 = getelementptr inbounds nuw i8, ptr %12, i64 64
  %16 = load i64, ptr %15, align 8, !tbaa !49
  %.not = icmp ult i64 %14, %16
  br i1 %.not, label %17, label %.critedge

17:                                               ; preds = %10
  %18 = icmp sgt i32 %5, 0
  br i1 %18, label %19, label %.critedge43

19:                                               ; preds = %17
  %20 = getelementptr inbounds nuw i8, ptr %2, i64 12
  %21 = load i32, ptr %20, align 4, !tbaa !4
  %22 = icmp eq i32 %21, 3
  br i1 %22, label %23, label %.critedge

23:                                               ; preds = %19
  %24 = load double, ptr %2, align 8, !tbaa !9
  %25 = fptosi double %24 to i32
  %.not38 = icmp ult i32 %25, 256
  br i1 %.not38, label %26, label %.critedge

26:                                               ; preds = %23
  %27 = trunc nuw i32 %25 to i8
  store i8 %27, ptr %7, align 1, !tbaa !9
  %.not3944 = icmp eq i32 %5, 1
  br i1 %.not3944, label %.critedge43, label %.lr.ph.preheader

.lr.ph.preheader:                                 ; preds = %26
  %28 = add nuw nsw i32 %5, 1
  %wide.trip.count = zext nneg i32 %28 to i64
  br label %.lr.ph

.lr.ph:                                           ; preds = %.lr.ph.preheader, %37
  %indvars.iv = phi i64 [ 2, %.lr.ph.preheader ], [ %indvars.iv.next, %37 ]
  %29 = getelementptr %struct.lua_TValue, ptr %4, i64 %indvars.iv
  %30 = getelementptr i8, ptr %29, i64 -20
  %31 = load i32, ptr %30, align 4, !tbaa !4
  %32 = icmp eq i32 %31, 3
  br i1 %32, label %33, label %.critedge

33:                                               ; preds = %.lr.ph
  %34 = getelementptr i8, ptr %29, i64 -32
  %35 = load double, ptr %34, align 8, !tbaa !9
  %36 = fptosi double %35 to i32
  %.not40 = icmp ult i32 %36, 256
  br i1 %.not40, label %37, label %.critedge

37:                                               ; preds = %33
  %38 = trunc nuw i32 %36 to i8
  %39 = add nsw i64 %indvars.iv, -1
  %40 = getelementptr inbounds [8 x i8], ptr %7, i64 0, i64 %39
  store i8 %38, ptr %40, align 1, !tbaa !9
  %indvars.iv.next = add nuw nsw i64 %indvars.iv, 1
  %exitcond.not = icmp eq i64 %indvars.iv.next, %wide.trip.count
  br i1 %exitcond.not, label %.critedge43, label %.lr.ph, !llvm.loop !50

.critedge43:                                      ; preds = %37, %17, %26
  %41 = sext i32 %5 to i64
  %42 = getelementptr inbounds [8 x i8], ptr %7, i64 0, i64 %41
  store i8 0, ptr %42, align 1, !tbaa !9
  %43 = call noundef ptr @_Z12luaS_newlstrP9lua_StatePKcm(ptr noundef %0, ptr noundef nonnull %7, i64 noundef %41)
  store ptr %43, ptr %1, align 8, !tbaa !9
  %44 = getelementptr inbounds nuw i8, ptr %1, i64 12
  store i32 5, ptr %44, align 4, !tbaa !4
  br label %.critedge

.critedge:                                        ; preds = %.lr.ph, %33, %23, %6, %19, %10, %.critedge43
  %.0 = phi i32 [ 1, %.critedge43 ], [ -1, %10 ], [ -1, %19 ], [ -1, %6 ], [ -1, %23 ], [ -1, %33 ], [ -1, %.lr.ph ]
  call void @llvm.lifetime.end.p0(i64 8, ptr nonnull %7) #21
  ret i32 %.0
}